target datalayout = "e-m:e-p270:32:32-p271:32:32-p272:64:64-i64:64-i128:128-f80:128-n8:16:32:64-S128"
target triple = "x86_64-pc-linux-gnu"

%struct.bloom_filter = type { i32, i64, i64, [0 x i8] }

; Function Attrs: inlinehint nounwind uwtable
define internal i64 @UInt64GetDatum(i64 noundef %0) #3 {
  %2 = alloca i64, align 8
  store i64 %0, ptr %2, align 8
  %3 = load i64, ptr %2, align 8
  ret i64 %3
}

; Function Attrs: inlinehint nounwind uwtable
define internal i32 @mod_m(i32 noundef %0, i64 noundef %1) #3 {
  %3 = alloca i32, align 4
  %4 = alloca i64, align 8
  store i32 %0, ptr %3, align 4
  store i64 %1, ptr %4, align 8
  %5 = load i32, ptr %3, align 4
  %6 = zext i32 %5 to i64
  %7 = load i64, ptr %4, align 8
  %8 = sub i64 %7, 1
  %9 = and i64 %6, %8
  %10 = trunc i64 %9 to i32
  ret i32 %10
}

; Function Attrs: inlinehint nounwind uwtable
define internal i64 @DatumGetUInt64(i64 noundef %0) #3 {
  %2 = alloca i64, align 8
  store i64 %0, ptr %2, align 8
  %3 = load i64, ptr %2, align 8
  ret i64 %3
}

; Function Attrs: inlinehint nounwind uwtable
define internal i64 @hash_any_extended(ptr noundef %0, i32 noundef %1, i64 noundef %2) #3 {
  %4 = alloca ptr, align 8
  %5 = alloca i32, align 4
  %6 = alloca i64, align 8
  store ptr %0, ptr %4, align 8
  store i32 %1, ptr %5, align 4
  store i64 %2, ptr %6, align 8
  %7 = load ptr, ptr %4, align 8
  %8 = load i32, ptr %5, align 4
  %9 = load i64, ptr %6, align 8
  %10 = call i64 @hash_bytes_extended(ptr noundef %7, i32 noundef %8, i64 noundef %9)
  %11 = call i64 @UInt64GetDatum(i64 noundef %10)
  ret i64 %11
}

; Function Attrs: nounwind uwtable
define internal void @k_hashes(ptr noundef %0, ptr noundef %1, ptr noundef %2, i64 noundef %3) #0 {
  %5 = alloca ptr, align 8
  %6 = alloca ptr, align 8
  %7 = alloca ptr, align 8
  %8 = alloca i64, align 8
  %9 = alloca i64, align 8
  %10 = alloca i32, align 4
  %11 = alloca i32, align 4
  %12 = alloca i64, align 8
  %13 = alloca i32, align 4
  store ptr %0, ptr %5, align 8
  store ptr %1, ptr %6, align 8
  store ptr %2, ptr %7, align 8
  store i64 %3, ptr %8, align 8
  call void @llvm.lifetime.start.p0(i64 8, ptr %9) #6
  call void @llvm.lifetime.start.p0(i64 4, ptr %10) #6
  call void @llvm.lifetime.start.p0(i64 4, ptr %11) #6
  call void @llvm.lifetime.start.p0(i64 8, ptr %12) #6
  call void @llvm.lifetime.start.p0(i64 4, ptr %13) #6
  %14 = load ptr, ptr %7, align 8
  %15 = load i64, ptr %8, align 8
  %16 = trunc i64 %15 to i32
  %17 = load ptr, ptr %5, align 8
  %18 = getelementptr inbounds nuw %struct.bloom_filter, ptr %17, i32 0, i32 1
  %19 = load i64, ptr %18, align 8
  %20 = call i64 @hash_any_extended(ptr noundef %14, i32 noundef %16, i64 noundef %19)
  %21 = call i64 @DatumGetUInt64(i64 noundef %20)
  store i64 %21, ptr %9, align 8
  %22 = load i64, ptr %9, align 8
  %23 = trunc i64 %22 to i32
  store i32 %23, ptr %10, align 4
  %24 = load i64, ptr %9, align 8
  %25 = lshr i64 %24, 32
  %26 = trunc i64 %25 to i32
  store i32 %26, ptr %11, align 4
  %27 = load ptr, ptr %5, align 8
  %28 = getelementptr inbounds nuw %struct.bloom_filter, ptr %27, i32 0, i32 2
  %29 = load i64, ptr %28, align 8
  store i64 %29, ptr %12, align 8
  %30 = load i32, ptr %10, align 4
  %31 = load i64, ptr %12, align 8
  %32 = call i32 @mod_m(i32 noundef %30, i64 noundef %31)
  store i32 %32, ptr %10, align 4
  %33 = load i32, ptr %11, align 4
  %34 = load i64, ptr %12, align 8
  %35 = call i32 @mod_m(i32 noundef %33, i64 noundef %34)
  store i32 %35, ptr %11, align 4
  %36 = load i32, ptr %10, align 4
  %37 = load ptr, ptr %6, align 8
  %38 = getelementptr inbounds i32, ptr %37, i64 0
  store i32 %36, ptr %38, align 4
  store i32 1, ptr %13, align 4
  br label %39

39:                                               ; preds = %61, %4
  %40 = load i32, ptr %13, align 4
  %41 = load ptr, ptr %5, align 8
  %42 = getelementptr inbounds nuw %struct.bloom_filter, ptr %41, i32 0, i32 0
  %43 = load i32, ptr %42, align 8
  %44 = icmp slt i32 %40, %43
  br i1 %44, label %45, label %64

45:                                               ; preds = %39
  %46 = load i32, ptr %10, align 4
  %47 = load i32, ptr %11, align 4
  %48 = add i32 %46, %47
  %49 = load i64, ptr %12, align 8
  %50 = call i32 @mod_m(i32 noundef %48, i64 noundef %49)
  store i32 %50, ptr %10, align 4
  %51 = load i32, ptr %11, align 4
  %52 = load i32, ptr %13, align 4
  %53 = add i32 %51, %52
  %54 = load i64, ptr %12, align 8
  %55 = call i32 @mod_m(i32 noundef %53, i64 noundef %54)
  store i32 %55, ptr %11, align 4
  %56 = load i32, ptr %10, align 4
  %57 = load ptr, ptr %6, align 8
  %58 = load i32, ptr %13, align 4
  %59 = sext i32 %58 to i64
  %60 = getelementptr inbounds i32, ptr %57, i64 %59
  store i32 %56, ptr %60, align 4
  br label %61

61:                                               ; preds = %45
  %62 = load i32, ptr %13, align 4
  %63 = add i32 %62, 1
  store i32 %63, ptr %13, align 4
  br label %39, !llvm.loop !7

64:                                               ; preds = %39
  call void @llvm.lifetime.end.p0(i64 4, ptr %13) #6
  call void @llvm.lifetime.end.p0(i64 8, ptr %12) #6
  call void @llvm.lifetime.end.p0(i64 4, ptr %11) #6
  call void @llvm.lifetime.end.p0(i64 4, ptr %10) #6
  call void @llvm.lifetime.end.p0(i64 8, ptr %9) #6
  ret void
}

; Function Attrs: nounwind uwtable
define dso_local void @bloom_add_element(ptr noundef %0, ptr noundef %1, i64 noundef %2) #0 {
  %4 = alloca ptr, align 8
  %5 = alloca ptr, align 8
  %6 = alloca i64, align 8
  %7 = alloca [10 x i32], align 16
  %8 = alloca i32, align 4
  store ptr %0, ptr %4, align 8
  store ptr %1, ptr %5, align 8
  store i64 %2, ptr %6, align 8
  call void @llvm.lifetime.start.p0(i64 40, ptr %7) #6
  call void @llvm.lifetime.start.p0(i64 4, ptr %8) #6
  %9 = load ptr, ptr %4, align 8
  %10 = getelementptr inbounds [10 x i32], ptr %7, i64 0, i64 0
  %11 = load ptr, ptr %5, align 8
  %12 = load i64, ptr %6, align 8
  call void @k_hashes(ptr noundef %9, ptr noundef %10, ptr noundef %11, i64 noundef %12)
  store i32 0, ptr %8, align 4
  br label %13

13:                                               ; preds = %39, %3
  %14 = load i32, ptr %8, align 4
  %15 = load ptr, ptr %4, align 8
  %16 = getelementptr inbounds nuw %struct.bloom_filter, ptr %15, i32 0, i32 0
  %17 = load i32, ptr %16, align 8
  %18 = icmp slt i32 %14, %17
  br i1 %18, label %19, label %42

19:                                               ; preds = %13
  %20 = load i32, ptr %8, align 4
  %21 = sext i32 %20 to i64
  %22 = getelementptr inbounds [10 x i32], ptr %7, i64 0, i64 %21
  %23 = load i32, ptr %22, align 4
  %24 = and i32 %23, 7
  %25 = shl i32 1, %24
  %26 = load ptr, ptr %4, align 8
  %27 = getelementptr inbounds nuw %struct.bloom_filter, ptr %26, i32 0, i32 3
  %28 = load i32, ptr %8, align 4
  %29 = sext i32 %28 to i64
  %30 = getelementptr inbounds [10 x i32], ptr %7, i64 0, i64 %29
  %31 = load i32, ptr %30, align 4
  %32 = lshr i32 %31, 3
  %33 = zext i32 %32 to i64
  %34 = getelementptr inbounds nuw [0 x i8], ptr %27, i64 0, i64 %33
  %35 = load i8, ptr %34, align 1
  %36 = zext i8 %35 to i32
  %37 = or i32 %36, %25
  %38 = trunc i32 %37 to i8
  store i8 %38, ptr %34, align 1
  br label %39

39:                                               ; preds = %19
  %40 = load i32, ptr %8, align 4
  %41 = add i32 %40, 1
  store i32 %41, ptr %8, align 4
  br label %13, !llvm.loop !6

42:                                               ; preds = %13
  call void @llvm.lifetime.end.p0(i64 4, ptr %8) #6
  call void @llvm.lifetime.end.p0(i64 40, ptr %7) #6
  ret void
}