; Function Attrs: nounwind uwtable
define dso_local void @bloom_add_element(ptr noundef captures(none) %0, ptr noundef %1, i64 noundef %2) local_unnamed_addr #0 {
  %4 = alloca [10 x i32], align 16
  call void @llvm.lifetime.start.p0(i64 40, ptr nonnull %4) #5
  %5 = trunc i64 %2 to i32
  %6 = getelementptr inbounds nuw i8, ptr %0, i64 8
  %7 = load i64, ptr %6, align 8
  %8 = tail call i64 @hash_bytes_extended(ptr noundef %1, i32 noundef %5, i64 noundef %7) #5
  %9 = trunc i64 %8 to i32
  %10 = getelementptr inbounds nuw i8, ptr %0, i64 16
  %11 = load i64, ptr %10, align 8
  %12 = trunc i64 %11 to i32
  %13 = add i32 %12, -1
  %14 = and i32 %13, %9
  store i32 %14, ptr %4, align 16
  %15 = load i32, ptr %0, align 8
  %16 = icmp sgt i32 %15, 1
  br i1 %16, label %.lr.ph.preheader.i, label %k_hashes.exit

.lr.ph.preheader.i:                               ; preds = %3
  %17 = lshr i64 %8, 32
  %18 = trunc nuw i64 %17 to i32
  %19 = zext nneg i32 %15 to i64
  br label %.lr.ph.i

.lr.ph.i:                                         ; preds = %.lr.ph.i, %.lr.ph.preheader.i
  %indvars.iv.i = phi i64 [ 1, %.lr.ph.preheader.i ], [ %indvars.iv.next.i, %.lr.ph.i ]
  %.02326.i = phi i32 [ %14, %.lr.ph.preheader.i ], [ %21, %.lr.ph.i ]
  %.pn25.i = phi i32 [ %18, %.lr.ph.preheader.i ], [ %23, %.lr.ph.i ]
  %.024.i = and i32 %.pn25.i, %13
  %20 = add i32 %.024.i, %.02326.i
  %21 = and i32 %20, %13
  %22 = trunc nuw nsw i64 %indvars.iv.i to i32
  %23 = add i32 %.024.i, %22
  %24 = getelementptr inbounds nuw i32, ptr %4, i64 %indvars.iv.i
  store i32 %21, ptr %24, align 4
  %indvars.iv.next.i = add nuw nsw i64 %indvars.iv.i, 1
  %exitcond.not = icmp eq i64 %indvars.iv.next.i, %19
  br i1 %exitcond.not, label %k_hashes.exit, label %.lr.ph.i, !llvm.loop !6

k_hashes.exit:                                    ; preds = %.lr.ph.i, %3
  %25 = icmp sgt i32 %15, 0
  br i1 %25, label %.lr.ph, label %._crit_edge

.lr.ph:                                           ; preds = %k_hashes.exit
  %26 = getelementptr inbounds nuw i8, ptr %0, i64 24
  %wide.trip.count = zext nneg i32 %15 to i64
  br label %27

27:                                               ; preds = %.lr.ph, %27
  %indvars.iv = phi i64 [ 0, %.lr.ph ], [ %indvars.iv.next, %27 ]
  %28 = getelementptr inbounds nuw [10 x i32], ptr %4, i64 0, i64 %indvars.iv
  %29 = load i32, ptr %28, align 4
  %30 = and i32 %29, 7
  %31 = shl nuw nsw i32 1, %30
  %32 = lshr i32 %29, 3
  %33 = zext nneg i32 %32 to i64
  %34 = getelementptr inbounds nuw [0 x i8], ptr %26, i64 0, i64 %33
  %35 = load i8, ptr %34, align 1
  %36 = trunc nuw i32 %31 to i8
  %37 = or i8 %35, %36
  store i8 %37, ptr %34, align 1
  %indvars.iv.next = add nuw nsw i64 %indvars.iv, 1
  %exitcond10.not = icmp eq i64 %indvars.iv.next, %wide.trip.count
  br i1 %exitcond10.not, label %._crit_edge, label %27, !llvm.loop !7

._crit_edge:                                      ; preds = %27, %k_hashes.exit
  call void @llvm.lifetime.end.p0(i64 40, ptr nonnull %4) #5
  ret void
}